; Function Attrs: mustprogress nounwind uwtable
define hidden noundef ptr @_ZN14G1BarrierSetC230write_ref_field_pre_entry_TypeEv() local_unnamed_addr #0 align 2 {
  %1 = tail call noundef ptr @_ZN9TypeTuple6fieldsEj(i32 noundef 2) #6
  %2 = load ptr, ptr @_ZN11TypeInstPtr7NOTNULLE, align 8
  %3 = getelementptr inbounds i8, ptr %1, i64 40
  store ptr %2, ptr %3, align 8
  %4 = load ptr, ptr @_ZN10TypeRawPtr7NOTNULLE, align 8
  %5 = getelementptr inbounds i8, ptr %1, i64 48
  store ptr %4, ptr %5, align 8
  %6 = tail call noundef ptr @_ZN9TypeTuple4makeEjPPK4Type(i32 noundef 7, ptr noundef %1) #6
  %7 = tail call noundef ptr @_ZN9TypeTuple6fieldsEj(i32 noundef 0) #6
  %8 = tail call noundef ptr @_ZN9TypeTuple4makeEjPPK4Type(i32 noundef 5, ptr noundef %7) #6
  %9 = tail call noundef ptr @_ZN8TypeFunc4makeEPK9TypeTupleS2_(ptr noundef %6, ptr noundef %8) #6
  ret ptr %9
}